; Function Attrs: mustprogress nofree norecurse nosync nounwind willreturn memory(argmem: read) uwtable
define dso_local noundef zeroext i1 @_ZNK10cmPolicies9PolicyMap9IsDefinedENS_8PolicyIDE(ptr noundef nonnull readonly align 8 captures(none) dereferenceable(72) %0, i32 noundef %1) local_unnamed_addr #8 align 2 {
  %3 = mul nsw i32 %1, 3
  %4 = sext i32 %3 to i64
  %5 = lshr i64 %4, 6
  %6 = getelementptr inbounds nuw [9 x i64], ptr %0, i64 0, i64 %5
  %7 = load i64, ptr %6, align 8, !tbaa !17
  %8 = and i64 %4, 63
  %9 = shl nuw i64 1, %8
  %10 = and i64 %7, %9
  %.not = icmp eq i64 %10, 0
  br i1 %.not, label %11, label %30

11:                                               ; preds = %2
  %12 = add nsw i32 %3, 1
  %13 = sext i32 %12 to i64
  %14 = lshr i64 %13, 6
  %15 = getelementptr inbounds nuw [9 x i64], ptr %0, i64 0, i64 %14
  %16 = load i64, ptr %15, align 8, !tbaa !17
  %17 = and i64 %13, 63
  %18 = shl nuw i64 1, %17
  %19 = and i64 %16, %18
  %.not3 = icmp eq i64 %19, 0
  br i1 %.not3, label %20, label %30

20:                                               ; preds = %11
  %21 = add nsw i32 %3, 2
  %22 = sext i32 %21 to i64
  %23 = lshr i64 %22, 6
  %24 = getelementptr inbounds nuw [9 x i64], ptr %0, i64 0, i64 %23
  %25 = load i64, ptr %24, align 8, !tbaa !17
  %26 = and i64 %22, 63
  %27 = shl nuw i64 1, %26
  %28 = and i64 %25, %27
  %29 = icmp ne i64 %28, 0
  br label %30

30:                                               ; preds = %20, %11, %2
  %31 = phi i1 [ true, %11 ], [ true, %2 ], [ %29, %20 ]
  ret i1 %31
}